; Function Attrs: mustprogress uwtable
define dso_local noundef zeroext i1 @_ZNK9MTaskEdge21mergeWouldCreateCycleEv(ptr noundef nonnull align 8 dereferenceable(192) %0) local_unnamed_addr #4 align 2 {
  %2 = getelementptr inbounds i8, ptr %0, i64 40
  %3 = load ptr, ptr %2, align 8
  %4 = getelementptr inbounds i8, ptr %0, i64 48
  %5 = load ptr, ptr %4, align 8
  %6 = load i64, ptr @_ZZN10LogicMTask13incGenerationEvE12s_generation, align 8
  %7 = add i64 %6, 1
  store i64 %7, ptr @_ZZN10LogicMTask13incGenerationEvE12s_generation, align 8
  %8 = tail call noundef zeroext i1 @_ZN10LogicMTask22pathExistsFromInternalEPS_S0_PK11V3GraphEdgem(ptr noundef %3, ptr noundef %5, ptr noundef nonnull %0, i64 noundef %7)
  ret i1 %8
}